; Function Attrs: nounwind uwtable
define internal void @lcidm_delete_conn_lcid_(ptr noundef %0, ptr noundef readonly captures(none) %1) #0 {
  %3 = getelementptr i8, ptr %1, i64 8
  %.val = load ptr, ptr %3, align 8, !tbaa !3
  %4 = tail call ptr @OPENSSL_LH_delete(ptr noundef %.val, ptr noundef %0) #11
  %5 = getelementptr inbounds nuw i8, ptr %0, i64 32
  %6 = load ptr, ptr %5, align 8, !tbaa !32
  %7 = getelementptr inbounds nuw i8, ptr %6, i64 8
  %8 = load ptr, ptr %7, align 8, !tbaa !27
  %9 = tail call ptr @OPENSSL_LH_delete(ptr noundef %8, ptr noundef %0) #11
  %10 = load ptr, ptr %5, align 8, !tbaa !32
  %11 = load i64, ptr %10, align 8, !tbaa !28
  %12 = add i64 %11, -1
  store i64 %12, ptr %10, align 8, !tbaa !28
  tail call void @CRYPTO_free(ptr noundef %0, ptr noundef nonnull @.str, i32 noundef 221) #11
  ret void
}